target datalayout = "e-m:e-p270:32:32-p271:32:32-p272:64:64-i64:64-i128:128-f80:128-n8:16:32:64-S128"
target triple = "x86_64-pc-linux-gnu"

%struct.ident_t = type { i32, i32, i32, i32, ptr }
%"struct.faiss::RandomGenerator" = type { %"class.std::mersenne_twister_engine" }
%"class.std::mersenne_twister_engine" = type { [624 x i64], i64 }

@1 = private unnamed_addr constant %struct.ident_t { i32 0, i32 514, i32 0, i32 22, ptr @0 }, align 8
@_ZN5faiss15RandomGeneratorC1El = unnamed_addr alias void (ptr, i64), ptr @_ZN5faiss15RandomGeneratorC2El

; Function Attrs: mustprogress uwtable
define noundef i32 @_ZN5faiss15RandomGenerator8rand_intEv(ptr noundef nonnull align 8 dereferenceable(5000) %0) #0 align 2 {
  %2 = alloca ptr, align 8
  store ptr %0, ptr %2, align 8, !tbaa !4
  %3 = load ptr, ptr %2, align 8
  %4 = getelementptr inbounds nuw %"struct.faiss::RandomGenerator", ptr %3, i32 0, i32 0
  %5 = call noundef i64 @_ZNSt23mersenne_twister_engineImLm32ELm624ELm397ELm31ELm2567483615ELm11ELm4294967295ELm7ELm2636928640ELm15ELm4022730752ELm18ELm1812433253EEclEv(ptr noundef nonnull align 8 dereferenceable(5000) %4)
  %6 = and i64 %5, 2147483647
  %7 = trunc i64 %6 to i32
  ret i32 %7
}

; Function Attrs: mustprogress uwtable
define noundef i64 @_ZN5faiss15RandomGenerator10rand_int64Ev(ptr noundef nonnull align 8 dereferenceable(5000) %0) #0 align 2 {
  %2 = alloca ptr, align 8
  store ptr %0, ptr %2, align 8, !tbaa !4
  %3 = load ptr, ptr %2, align 8
  %4 = call noundef i32 @_ZN5faiss15RandomGenerator8rand_intEv(ptr noundef nonnull align 8 dereferenceable(5000) %3)
  %5 = sext i32 %4 to i64
  %6 = call noundef i32 @_ZN5faiss15RandomGenerator8rand_intEv(ptr noundef nonnull align 8 dereferenceable(5000) %3)
  %7 = sext i32 %6 to i64
  %8 = shl i64 %7, 31
  %9 = or i64 %5, %8
  ret i64 %9
}

; Function Attrs: alwaysinline norecurse nounwind uwtable
define internal void @_ZN5faiss10int64_randEPlml.omp_outlined(ptr noalias noundef %0, ptr noalias noundef %1, ptr noundef nonnull align 8 dereferenceable(8) %2, ptr noundef nonnull align 4 dereferenceable(4) %3, ptr noundef nonnull align 4 dereferenceable(4) %4, ptr noundef nonnull align 8 dereferenceable(8) %5, ptr noundef nonnull align 8 dereferenceable(8) %6) #4 personality ptr @__gxx_personality_v0 {
  %8 = alloca ptr, align 8
  %9 = alloca ptr, align 8
  %10 = alloca ptr, align 8
  %11 = alloca ptr, align 8
  %12 = alloca ptr, align 8
  %13 = alloca ptr, align 8
  %14 = alloca ptr, align 8
  %15 = alloca i64, align 8
  %16 = alloca i64, align 8
  %17 = alloca i64, align 8
  %18 = alloca i64, align 8
  %19 = alloca i64, align 8
  %20 = alloca i64, align 8
  %21 = alloca i64, align 8
  %22 = alloca i32, align 4
  %23 = alloca i64, align 8
  %24 = alloca %"struct.faiss::RandomGenerator", align 8
  %25 = alloca i64, align 8
  %26 = alloca i64, align 8
  %27 = alloca i64, align 8
  store ptr %0, ptr %8, align 8, !tbaa !27
  store ptr %1, ptr %9, align 8, !tbaa !27
  store ptr %2, ptr %10, align 8, !tbaa !29
  store ptr %3, ptr %11, align 8, !tbaa !27
  store ptr %4, ptr %12, align 8, !tbaa !27
  store ptr %5, ptr %13, align 8, !tbaa !29
  store ptr %6, ptr %14, align 8, !tbaa !42
  %28 = load ptr, ptr %10, align 8, !tbaa !29
  %29 = load ptr, ptr %11, align 8, !tbaa !27
  %30 = load ptr, ptr %12, align 8, !tbaa !27
  %31 = load ptr, ptr %13, align 8, !tbaa !29
  %32 = load ptr, ptr %14, align 8, !tbaa !42
  call void @llvm.lifetime.start.p0(i64 8, ptr %15) #5
  call void @llvm.lifetime.start.p0(i64 8, ptr %16) #5
  %33 = load i64, ptr %28, align 8, !tbaa !9
  store i64 %33, ptr %16, align 8, !tbaa !9
  call void @llvm.lifetime.start.p0(i64 8, ptr %17) #5
  %34 = load i64, ptr %16, align 8, !tbaa !9
  %35 = sub i64 %34, 0
  %36 = udiv i64 %35, 1
  %37 = sub i64 %36, 1
  store i64 %37, ptr %17, align 8, !tbaa !9
  call void @llvm.lifetime.start.p0(i64 8, ptr %18) #5
  store i64 0, ptr %18, align 8, !tbaa !9
  call void @llvm.lifetime.end.p0(i64 8, ptr %18) #5
  %38 = load i64, ptr %16, align 8, !tbaa !9
  %39 = icmp ult i64 0, %38
  br i1 %39, label %40, label %107

40:                                               ; preds = %7
  call void @llvm.lifetime.start.p0(i64 8, ptr %19) #5
  store i64 0, ptr %19, align 8, !tbaa !9
  call void @llvm.lifetime.start.p0(i64 8, ptr %20) #5
  %41 = load i64, ptr %17, align 8, !tbaa !9
  store i64 %41, ptr %20, align 8, !tbaa !9
  call void @llvm.lifetime.start.p0(i64 8, ptr %21) #5
  store i64 1, ptr %21, align 8, !tbaa !9
  call void @llvm.lifetime.start.p0(i64 4, ptr %22) #5
  store i32 0, ptr %22, align 4, !tbaa !19
  call void @llvm.lifetime.start.p0(i64 8, ptr %23) #5
  %42 = load ptr, ptr %8, align 8
  %43 = load i32, ptr %42, align 4, !tbaa !19
  call void @__kmpc_for_static_init_8u(ptr @1, i32 %43, i32 34, ptr %22, ptr %19, ptr %20, ptr %21, i64 1, i64 1)
  %44 = load i64, ptr %20, align 8, !tbaa !9
  %45 = load i64, ptr %17, align 8, !tbaa !9
  %46 = icmp ugt i64 %44, %45
  br i1 %46, label %47, label %49

47:                                               ; preds = %40
  %48 = load i64, ptr %17, align 8, !tbaa !9
  br label %51

49:                                               ; preds = %40
  %50 = load i64, ptr %20, align 8, !tbaa !9
  br label %51

51:                                               ; preds = %49, %47
  %52 = phi i64 [ %48, %47 ], [ %50, %49 ]
  store i64 %52, ptr %20, align 8, !tbaa !9
  %53 = load i64, ptr %19, align 8, !tbaa !9
  store i64 %53, ptr %15, align 8, !tbaa !9
  br label %54

54:                                               ; preds = %100, %51
  %55 = load i64, ptr %15, align 8, !tbaa !9
  %56 = load i64, ptr %20, align 8, !tbaa !9
  %57 = add i64 %56, 1
  %58 = icmp ult i64 %55, %57
  br i1 %58, label %60, label %59

59:                                               ; preds = %54
  br label %103

60:                                               ; preds = %54
  %61 = load i64, ptr %15, align 8, !tbaa !9
  %62 = mul i64 %61, 1
  %63 = add i64 0, %62
  store i64 %63, ptr %23, align 8, !tbaa !9
  call void @llvm.lifetime.start.p0(i64 5000, ptr %24) #5
  %64 = load i32, ptr %29, align 4, !tbaa !19
  %65 = sext i32 %64 to i64
  %66 = load i64, ptr %23, align 8, !tbaa !9
  %67 = load i32, ptr %30, align 4, !tbaa !19
  %68 = sext i32 %67 to i64
  %69 = mul nsw i64 %66, %68
  %70 = add nsw i64 %65, %69
  invoke void @_ZN5faiss15RandomGeneratorC1El(ptr noundef nonnull align 8 dereferenceable(5000) %24, i64 noundef %70)
          to label %71 unwind label %108

71:                                               ; preds = %60
  call void @llvm.lifetime.start.p0(i64 8, ptr %25) #5
  %72 = load i64, ptr %23, align 8, !tbaa !9
  %73 = load i64, ptr %31, align 8, !tbaa !9
  %74 = mul i64 %72, %73
  %75 = load i64, ptr %28, align 8, !tbaa !9
  %76 = udiv i64 %74, %75
  store i64 %76, ptr %25, align 8, !tbaa !9
  call void @llvm.lifetime.start.p0(i64 8, ptr %26) #5
  %77 = load i64, ptr %23, align 8, !tbaa !9
  %78 = add nsw i64 %77, 1
  %79 = load i64, ptr %31, align 8, !tbaa !9
  %80 = mul i64 %78, %79
  %81 = load i64, ptr %28, align 8, !tbaa !9
  %82 = udiv i64 %80, %81
  store i64 %82, ptr %26, align 8, !tbaa !9
  call void @llvm.lifetime.start.p0(i64 8, ptr %27) #5
  %83 = load i64, ptr %25, align 8, !tbaa !9
  store i64 %83, ptr %27, align 8, !tbaa !9
  br label %84

84:                                               ; preds = %95, %71
  %85 = load i64, ptr %27, align 8, !tbaa !9
  %86 = load i64, ptr %26, align 8, !tbaa !9
  %87 = icmp ult i64 %85, %86
  br i1 %87, label %89, label %88

88:                                               ; preds = %84
  call void @llvm.lifetime.end.p0(i64 8, ptr %27) #5
  br label %98

89:                                               ; preds = %84
  %90 = invoke noundef i64 @_ZN5faiss15RandomGenerator10rand_int64Ev(ptr noundef nonnull align 8 dereferenceable(5000) %24)
          to label %91 unwind label %108

91:                                               ; preds = %89
  %92 = load ptr, ptr %32, align 8, !tbaa !29
  %93 = load i64, ptr %27, align 8, !tbaa !9
  %94 = getelementptr inbounds nuw i64, ptr %92, i64 %93
  store i64 %90, ptr %94, align 8, !tbaa !9
  br label %95

95:                                               ; preds = %91
  %96 = load i64, ptr %27, align 8, !tbaa !9
  %97 = add i64 %96, 1
  store i64 %97, ptr %27, align 8, !tbaa !9
  br label %84, !llvm.loop !44

98:                                               ; preds = %88
  call void @llvm.lifetime.end.p0(i64 8, ptr %26) #5
  call void @llvm.lifetime.end.p0(i64 8, ptr %25) #5
  call void @llvm.lifetime.end.p0(i64 5000, ptr %24) #5
  br label %99

99:                                               ; preds = %98
  br label %100

100:                                              ; preds = %99
  %101 = load i64, ptr %15, align 8, !tbaa !9
  %102 = add i64 %101, 1
  store i64 %102, ptr %15, align 8, !tbaa !9
  br label %54

103:                                              ; preds = %59
  br label %104

104:                                              ; preds = %103
  %105 = load ptr, ptr %8, align 8
  %106 = load i32, ptr %105, align 4, !tbaa !19
  call void @__kmpc_for_static_fini(ptr @1, i32 %106)
  call void @llvm.lifetime.end.p0(i64 8, ptr %23) #5
  call void @llvm.lifetime.end.p0(i64 4, ptr %22) #5
  call void @llvm.lifetime.end.p0(i64 8, ptr %21) #5
  call void @llvm.lifetime.end.p0(i64 8, ptr %20) #5
  call void @llvm.lifetime.end.p0(i64 8, ptr %19) #5
  br label %107

107:                                              ; preds = %104, %7
  call void @llvm.lifetime.end.p0(i64 8, ptr %17) #5
  call void @llvm.lifetime.end.p0(i64 8, ptr %16) #5
  call void @llvm.lifetime.end.p0(i64 8, ptr %15) #5
  ret void

108:                                              ; preds = %89, %60
  %109 = landingpad { ptr, i32 }
          catch ptr null
  %110 = extractvalue { ptr, i32 } %109, 0
  call void @__clang_call_terminate(ptr %110) #16
  unreachable
}