; Function Attrs: alwaysinline norecurse nounwind uwtable
define internal void @_ZN5faiss10int64_randEPlml.omp_outlined(ptr noalias noundef readonly captures(none) %0, ptr noalias readnone captures(none) %1, ptr noundef nonnull readonly align 8 captures(none) dereferenceable(8) %2, ptr noundef nonnull readonly align 4 captures(none) dereferenceable(4) %3, ptr noundef nonnull readonly align 4 captures(none) dereferenceable(4) %4, ptr noundef nonnull readonly align 8 captures(none) dereferenceable(8) %5, ptr noundef nonnull readonly align 8 captures(none) dereferenceable(8) %6) #5 personality ptr @__gxx_personality_v0 {
  %8 = alloca i64, align 8
  %9 = alloca i64, align 8
  %10 = alloca i64, align 8
  %11 = alloca i32, align 4
  %12 = alloca %"struct.faiss::RandomGenerator", align 8
  %13 = load i64, ptr %2, align 8, !tbaa !4
  %.not = icmp eq i64 %13, 0
  br i1 %.not, label %114, label %14

14:                                               ; preds = %7
  %15 = add i64 %13, -1
  call void @llvm.lifetime.start.p0(i64 8, ptr nonnull %8) #6
  store i64 0, ptr %8, align 8, !tbaa !4
  call void @llvm.lifetime.start.p0(i64 8, ptr nonnull %9) #6
  store i64 %15, ptr %9, align 8, !tbaa !4
  call void @llvm.lifetime.start.p0(i64 8, ptr nonnull %10) #6
  store i64 1, ptr %10, align 8, !tbaa !4
  call void @llvm.lifetime.start.p0(i64 4, ptr nonnull %11) #6
  store i32 0, ptr %11, align 4, !tbaa !19
  %16 = load i32, ptr %0, align 4, !tbaa !19
  call void @__kmpc_for_static_init_8u(ptr nonnull @1, i32 %16, i32 34, ptr nonnull %11, ptr nonnull %8, ptr nonnull %9, ptr nonnull %10, i64 1, i64 1)
  %17 = load i64, ptr %9, align 8, !tbaa !4
  %18 = call i64 @llvm.umin.i64(i64 %17, i64 %15)
  store i64 %18, ptr %9, align 8, !tbaa !4
  %19 = load i64, ptr %8, align 8, !tbaa !4
  %.not29 = icmp ugt i64 %19, %18
  br i1 %.not29, label %._crit_edge28, label %.lr.ph27

.lr.ph27:                                         ; preds = %14
  %20 = getelementptr inbounds nuw i8, ptr %12, i64 4992
  %.phi.trans.insert.i.i = getelementptr inbounds nuw i8, ptr %12, i64 1816
  %21 = getelementptr inbounds nuw i8, ptr %12, i64 4984
  %22 = getelementptr inbounds nuw i8, ptr %12, i64 3168
  br label %23

23:                                               ; preds = %.lr.ph27, %._crit_edge
  %.02225 = phi i64 [ %19, %.lr.ph27 ], [ %35, %._crit_edge ]
  call void @llvm.lifetime.start.p0(i64 5000, ptr nonnull %12) #6
  %24 = load i32, ptr %3, align 4, !tbaa !19
  %25 = sext i32 %24 to i64
  %26 = load i32, ptr %4, align 4, !tbaa !19
  %27 = sext i32 %26 to i64
  %28 = mul nsw i64 %.02225, %27
  %29 = add nsw i64 %28, %25
  invoke void @_ZN5faiss15RandomGeneratorC1El(ptr noundef nonnull align 8 dereferenceable(5000) %12, i64 noundef %29)
          to label %30 unwind label %.loopexit.split-lp

30:                                               ; preds = %23
  %31 = load i64, ptr %5, align 8, !tbaa !4
  %32 = mul i64 %31, %.02225
  %33 = load i64, ptr %2, align 8, !tbaa !4
  %34 = udiv i64 %32, %33
  %35 = add nuw nsw i64 %.02225, 1
  %36 = mul i64 %31, %35
  %37 = udiv i64 %36, %33
  %38 = icmp ult i64 %34, %37
  br i1 %38, label %.lr.ph, label %._crit_edge

._crit_edge:                                      ; preds = %94, %30
  call void @llvm.lifetime.end.p0(i64 5000, ptr nonnull %12) #6
  %39 = load i64, ptr %9, align 8, !tbaa !4
  %40 = add i64 %39, 1
  %41 = icmp ult i64 %35, %40
  br i1 %41, label %23, label %._crit_edge28

.lr.ph:                                           ; preds = %30, %94
  %.024 = phi i64 [ %112, %94 ], [ %34, %30 ]
  %42 = load i64, ptr %20, align 8, !tbaa !10
  %43 = icmp ugt i64 %42, 623
  br i1 %43, label %44, label %.noexc

44:                                               ; preds = %.lr.ph
  %.pre.i.i = load i64, ptr %12, align 8, !tbaa !4
  br label %45

45:                                               ; preds = %45, %44
  %46 = phi i64 [ %.pre.i.i, %44 ], [ %51, %45 ]
  %.021.i.i = phi i64 [ 0, %44 ], [ %49, %45 ]
  %47 = getelementptr inbounds nuw [624 x i64], ptr %12, i64 0, i64 %.021.i.i
  %48 = and i64 %46, -2147483648
  %49 = add nuw nsw i64 %.021.i.i, 1
  %50 = getelementptr inbounds nuw [624 x i64], ptr %12, i64 0, i64 %49
  %51 = load i64, ptr %50, align 8, !tbaa !4
  %52 = and i64 %51, 2147483646
  %53 = or disjoint i64 %52, %48
  %54 = add nuw nsw i64 %.021.i.i, 397
  %55 = getelementptr inbounds nuw [624 x i64], ptr %12, i64 0, i64 %54
  %56 = load i64, ptr %55, align 8, !tbaa !4
  %57 = lshr exact i64 %53, 1
  %58 = xor i64 %57, %56
  %59 = and i64 %51, 1
  %.not20.i.i = icmp eq i64 %59, 0
  %60 = select i1 %.not20.i.i, i64 0, i64 2567483615
  %61 = xor i64 %58, %60
  store i64 %61, ptr %47, align 8, !tbaa !4
  %exitcond.not.i.i = icmp eq i64 %49, 227
  br i1 %exitcond.not.i.i, label %.preheader.preheader.i.i, label %45, !llvm.loop !12

.preheader.preheader.i.i:                         ; preds = %45
  %.pre24.i.i = load i64, ptr %.phi.trans.insert.i.i, align 8, !tbaa !4
  br label %.preheader.i.i

.preheader.i.i:                                   ; preds = %.preheader.i.i, %.preheader.preheader.i.i
  %62 = phi i64 [ %67, %.preheader.i.i ], [ %.pre24.i.i, %.preheader.preheader.i.i ]
  %.01822.i.i = phi i64 [ %65, %.preheader.i.i ], [ 227, %.preheader.preheader.i.i ]
  %63 = getelementptr inbounds nuw [624 x i64], ptr %12, i64 0, i64 %.01822.i.i
  %64 = and i64 %62, -2147483648
  %65 = add nuw nsw i64 %.01822.i.i, 1
  %66 = getelementptr inbounds nuw [624 x i64], ptr %12, i64 0, i64 %65
  %67 = load i64, ptr %66, align 8, !tbaa !4
  %68 = and i64 %67, 2147483646
  %69 = or disjoint i64 %68, %64
  %70 = add nsw i64 %.01822.i.i, -227
  %71 = getelementptr inbounds nuw [624 x i64], ptr %12, i64 0, i64 %70
  %72 = load i64, ptr %71, align 8, !tbaa !4
  %73 = lshr exact i64 %69, 1
  %74 = xor i64 %73, %72
  %75 = and i64 %67, 1
  %.not19.i.i = icmp eq i64 %75, 0
  %76 = select i1 %.not19.i.i, i64 0, i64 2567483615
  %77 = xor i64 %74, %76
  store i64 %77, ptr %63, align 8, !tbaa !4
  %exitcond23.not.i.i = icmp eq i64 %65, 623
  br i1 %exitcond23.not.i.i, label %_ZNSt23mersenne_twister_engineImLm32ELm624ELm397ELm31ELm2567483615ELm11ELm4294967295ELm7ELm2636928640ELm15ELm4022730752ELm18ELm1812433253EE11_M_gen_randEv.exit.i, label %.preheader.i.i, !llvm.loop !13

_ZNSt23mersenne_twister_engineImLm32ELm624ELm397ELm31ELm2567483615ELm11ELm4294967295ELm7ELm2636928640ELm15ELm4022730752ELm18ELm1812433253EE11_M_gen_randEv.exit.i: ; preds = %.preheader.i.i
  %78 = load i64, ptr %21, align 8, !tbaa !4
  %79 = and i64 %78, -2147483648
  %80 = load i64, ptr %12, align 8, !tbaa !4
  %81 = and i64 %80, 2147483646
  %82 = or disjoint i64 %81, %79
  %83 = load i64, ptr %22, align 8, !tbaa !4
  %84 = lshr exact i64 %82, 1
  %85 = xor i64 %84, %83
  %86 = and i64 %80, 1
  %.not.i.i = icmp eq i64 %86, 0
  %87 = select i1 %.not.i.i, i64 0, i64 2567483615
  %88 = xor i64 %85, %87
  store i64 %88, ptr %21, align 8, !tbaa !4
  br label %.noexc

.noexc:                                           ; preds = %_ZNSt23mersenne_twister_engineImLm32ELm624ELm397ELm31ELm2567483615ELm11ELm4294967295ELm7ELm2636928640ELm15ELm4022730752ELm18ELm1812433253EE11_M_gen_randEv.exit.i, %.lr.ph
  %89 = phi i64 [ 0, %_ZNSt23mersenne_twister_engineImLm32ELm624ELm397ELm31ELm2567483615ELm11ELm4294967295ELm7ELm2636928640ELm15ELm4022730752ELm18ELm1812433253EE11_M_gen_randEv.exit.i ], [ %42, %.lr.ph ]
  %90 = add nuw nsw i64 %89, 1
  store i64 %90, ptr %20, align 8, !tbaa !10
  %91 = getelementptr inbounds nuw [624 x i64], ptr %12, i64 0, i64 %89
  %92 = load i64, ptr %91, align 8, !tbaa !4
  %93 = invoke noundef i64 @_ZNSt23mersenne_twister_engineImLm32ELm624ELm397ELm31ELm2567483615ELm11ELm4294967295ELm7ELm2636928640ELm15ELm4022730752ELm18ELm1812433253EEclEv(ptr noundef nonnull align 8 dereferenceable(5000) %12)
          to label %94 unwind label %.loopexit

94:                                               ; preds = %.noexc
  %95 = lshr i64 %92, 11
  %96 = and i64 %95, 4294967295
  %97 = xor i64 %96, %92
  %98 = shl i64 %97, 7
  %99 = and i64 %98, 2636928640
  %100 = xor i64 %99, %97
  %101 = shl i64 %100, 15
  %102 = and i64 %101, 4022730752
  %103 = xor i64 %102, %100
  %104 = lshr i64 %103, 18
  %105 = xor i64 %104, %103
  %106 = and i64 %105, 2147483647
  %107 = shl i64 %93, 31
  %108 = and i64 %107, 4611686016279904256
  %109 = or disjoint i64 %106, %108
  %110 = load ptr, ptr %6, align 8, !tbaa !28
  %111 = getelementptr inbounds nuw i64, ptr %110, i64 %.024
  store i64 %109, ptr %111, align 8, !tbaa !4
  %112 = add nuw i64 %.024, 1
  %113 = icmp ult i64 %112, %37
  br i1 %113, label %.lr.ph, label %._crit_edge, !llvm.loop !30

._crit_edge28:                                    ; preds = %._crit_edge, %14
  call void @__kmpc_for_static_fini(ptr nonnull @1, i32 %16)
  call void @llvm.lifetime.end.p0(i64 4, ptr nonnull %11) #6
  call void @llvm.lifetime.end.p0(i64 8, ptr nonnull %10) #6
  call void @llvm.lifetime.end.p0(i64 8, ptr nonnull %9) #6
  call void @llvm.lifetime.end.p0(i64 8, ptr nonnull %8) #6
  br label %114

114:                                              ; preds = %._crit_edge28, %7
  ret void

.loopexit:                                        ; preds = %.noexc
  %lpad.loopexit = landingpad { ptr, i32 }
          catch ptr null
  br label %115

.loopexit.split-lp:                               ; preds = %23
  %lpad.loopexit.split-lp = landingpad { ptr, i32 }
          catch ptr null
  br label %115

115:                                              ; preds = %.loopexit.split-lp, %.loopexit
  %lpad.phi = phi { ptr, i32 } [ %lpad.loopexit, %.loopexit ], [ %lpad.loopexit.split-lp, %.loopexit.split-lp ]
  %116 = extractvalue { ptr, i32 } %lpad.phi, 0
  call void @__clang_call_terminate(ptr %116) #18
  unreachable
}